	.cpu cortex-m4
	.arch armv7e-m
	.fpu fpv4-sp-d16
	.eabi_attribute 27, 1
	.eabi_attribute 28, 1
	.eabi_attribute 20, 1
	.eabi_attribute 21, 1
	.eabi_attribute 23, 3
	.eabi_attribute 24, 1
	.eabi_attribute 25, 1
	.eabi_attribute 26, 1
	.eabi_attribute 30, 2
	.eabi_attribute 34, 1
	.eabi_attribute 18, 4
	.file	"system_msp432p4111.c"
	.text
.Ltext0:
	.cfi_sections	.debug_frame
	.file 1 "lib/system_msp432p4111.c"
	.section	.text.SystemCoreClockUpdate,"ax",%progbits
	.align	1
	.p2align 2,,3
	.global	SystemCoreClockUpdate
	.syntax unified
	.thumb
	.thumb_func
	.type	SystemCoreClockUpdate, %function
SystemCoreClockUpdate:
.LFB131:
	.loc 1 102 34
	.cfi_startproc
	@ args = 0, pretend = 0, frame = 0
	@ frame_needed = 0, uses_anonymous_args = 0
	@ link register save eliminated.
	.loc 1 103 3
.LVL0:
	.loc 1 105 3
	.loc 1 106 3
	.loc 1 108 3
	.loc 1 108 21 is_stmt 0
	ldr	r3, .L36
	ldr	r2, [r3, #8]
	.loc 1 110 20
	ldr	r3, [r3, #8]
	.loc 1 110 16
	and	r3, r3, #7
	.loc 1 102 34
	push	{r4}
	.cfi_def_cfa_offset 4
	.cfi_offset 4, -4
	.loc 1 108 16
	ubfx	r2, r2, #16, #3
.LVL1:
	.loc 1 109 3 is_stmt 1
	.loc 1 110 3
	.loc 1 112 3
	cmp	r3, #5
	bhi	.L1
	tbb	[pc, r3]
.L4:
	.byte	(.L9-.L4)/2
	.byte	(.L8-.L4)/2
	.byte	(.L33-.L4)/2
	.byte	(.L6-.L4)/2
	.byte	(.L5-.L4)/2
	.byte	(.L3-.L4)/2
	.p2align 1
.L5:
	.loc 1 192 5
	.loc 1 192 32 is_stmt 0
	ldr	r3, .L36+4
	.loc 1 192 21
	ldr	r1, .L36+8
	.loc 1 192 32
	lsrs	r3, r3, r2
	.loc 1 192 21
	str	r3, [r1]
	.loc 1 193 5 is_stmt 1
.LVL2:
.L1:
	.loc 1 215 1 is_stmt 0
	ldr	r4, [sp], #4
	.cfi_remember_state
	.cfi_restore 4
	.cfi_def_cfa_offset 0
	bx	lr
.LVL3:
.L3:
	.cfi_restore_state
	.loc 1 195 5 is_stmt 1
	.loc 1 195 9 is_stmt 0
	ldr	r3, .L36+12
	ldrb	r1, [r3, #4]	@ zero_extendqisi2
	.loc 1 195 8
	cmp	r1, #0
	beq	.L19
	.loc 1 197 7 is_stmt 1
	.loc 1 197 19 is_stmt 0
	ldr	r1, .L36
	movw	r0, #26970
	str	r0, [r1]
	.loc 1 198 7 is_stmt 1
	.loc 1 198 9 is_stmt 0
	ldr	r0, [r1, #80]
	.loc 1 199 19
	movs	r4, #1
	.loc 1 198 18
	orr	r0, r0, #2
	str	r0, [r1, #80]
	.loc 1 199 7 is_stmt 1
	.loc 1 199 19 is_stmt 0
	str	r4, [r1]
	.loc 1 201 7 is_stmt 1
	.loc 1 201 11 is_stmt 0
	ldrb	r3, [r3, #4]	@ zero_extendqisi2
	.loc 1 201 10
	cmp	r3, #0
	beq	.L19
.L33:
	.loc 1 202 9 is_stmt 1
	.loc 1 202 13 is_stmt 0
	ldr	r3, .L36+16
	.loc 1 203 27
	ldr	r1, .L36+8
	.loc 1 202 13
	ldrb	r3, [r3, #60]	@ zero_extendqisi2
	.loc 1 202 12
	cmp	r3, #0
	beq	.L21
	.loc 1 203 11 is_stmt 1
	.loc 1 203 37 is_stmt 0
	mov	r3, #128000
	lsrs	r3, r3, r2
	.loc 1 215 1
	ldr	r4, [sp], #4
	.cfi_remember_state
	.cfi_restore 4
	.cfi_def_cfa_offset 0
	.loc 1 203 27
	str	r3, [r1]
	.loc 1 215 1
	bx	lr
.L8:
	.cfi_restore_state
	.loc 1 134 5 is_stmt 1
	.loc 1 134 21 is_stmt 0
	ldr	r1, .L36+8
	.loc 1 215 1
	ldr	r4, [sp], #4
	.cfi_remember_state
	.cfi_restore 4
	.cfi_def_cfa_offset 0
	.loc 1 134 32
	movw	r3, #10000
	lsrs	r3, r3, r2
	.loc 1 134 21
	str	r3, [r1]
	.loc 1 135 5 is_stmt 1
	.loc 1 215 1 is_stmt 0
	bx	lr
.L6:
	.cfi_restore_state
	.loc 1 144 5 is_stmt 1
	.loc 1 144 18 is_stmt 0
	ldr	r2, .L36
.LVL4:
	ldr	r3, [r2, #4]
	.loc 1 146 15
	ldr	r2, [r2, #4]
	.loc 1 146 22
	and	r2, r2, #458752
	cmp	r2, #196608
	.loc 1 144 13
	ubfx	r3, r3, #0, #10
.LVL5:
	.loc 1 146 5 is_stmt 1
	beq	.L22
	bhi	.L15
	cmp	r2, #65536
	beq	.L23
	cmp	r2, #131072
	beq	.L24
	vldr.32	s12, .L36+20
	vldr.32	s15, .L36+24
	ldr	r1, .L36+28
	cmp	r2, #0
	it	eq
	vmoveq.f32	s12, s15
	it	ne
	movne	r1, #0
.L14:
.LVL6:
	.loc 1 167 5
	.loc 1 167 8 is_stmt 0
	cmp	r3, #0
	bne	.L16
	.loc 1 168 7 is_stmt 1
	.loc 1 168 23 is_stmt 0
	ldr	r3, .L36+8
.LVL7:
	str	r1, [r3]
	b	.L1
.LVL8:
.L9:
	.loc 1 114 5 is_stmt 1
	.loc 1 114 9 is_stmt 0
	ldr	r3, .L36+12
	ldrb	r1, [r3]	@ zero_extendqisi2
	.loc 1 114 8
	cbz	r1, .L10
	.loc 1 116 7 is_stmt 1
	.loc 1 116 19 is_stmt 0
	ldr	r1, .L36
	movw	r0, #26970
	str	r0, [r1]
	.loc 1 117 7 is_stmt 1
	.loc 1 117 9 is_stmt 0
	ldr	r0, [r1, #80]
	.loc 1 118 19
	movs	r4, #1
	.loc 1 117 18
	orrs	r0, r0, r4
	str	r0, [r1, #80]
	.loc 1 118 7 is_stmt 1
	.loc 1 118 19 is_stmt 0
	str	r4, [r1]
	.loc 1 120 7 is_stmt 1
	.loc 1 120 11 is_stmt 0
	ldrb	r3, [r3]	@ zero_extendqisi2
	.loc 1 120 10
	cmp	r3, #0
	bne	.L33
.L10:
	.loc 1 130 7 is_stmt 1
	.loc 1 130 23 is_stmt 0
	ldr	r1, .L36+8
	.loc 1 215 1
	ldr	r4, [sp], #4
	.cfi_remember_state
	.cfi_restore 4
	.cfi_def_cfa_offset 0
	.loc 1 130 32
	mov	r3, #32768
	lsrs	r3, r3, r2
	.loc 1 130 23
	str	r3, [r1]
	.loc 1 215 1
	bx	lr
.L21:
	.cfi_restore_state
	.loc 1 205 11 is_stmt 1
	.loc 1 205 36 is_stmt 0
	mov	r3, #32000
	lsrs	r3, r3, r2
	.loc 1 215 1
	ldr	r4, [sp], #4
	.cfi_remember_state
	.cfi_restore 4
	.cfi_def_cfa_offset 0
	.loc 1 205 27
	str	r3, [r1]
	.loc 1 215 1
	bx	lr
.L19:
	.cfi_restore_state
	.loc 1 211 7 is_stmt 1
	.loc 1 211 32 is_stmt 0
	ldr	r3, .L36+32
	.loc 1 211 23
	ldr	r1, .L36+8
	.loc 1 215 1
	ldr	r4, [sp], #4
	.cfi_remember_state
	.cfi_restore 4
	.cfi_def_cfa_offset 0
	.loc 1 211 32
	lsrs	r3, r3, r2
	.loc 1 211 23
	str	r3, [r1]
	.loc 1 215 1
	bx	lr
.LVL9:
.L15:
	.cfi_restore_state
	cmp	r2, #262144
	beq	.L26
	vldr.32	s12, .L36+20
	vldr.32	s15, .L36+36
	ldr	r1, .L36+32
	cmp	r2, #327680
	it	eq
	vmoveq.f32	s12, s15
	it	ne
	movne	r1, #0
	b	.L14
.L24:
	vldr.32	s12, .L36+40
	.loc 1 154 20
	ldr	r1, .L36+44
	b	.L14
.L26:
	vldr.32	s12, .L36+48
	.loc 1 160 20
	ldr	r1, .L36+4
	b	.L14
.LVL10:
.L16:
	.loc 1 171 7 is_stmt 1
	.loc 1 175 7
	.loc 1 175 11 is_stmt 0
	ldr	r2, .L36+52
	ldrb	r2, [r2, #216]	@ zero_extendqisi2
	.loc 1 175 10
	cbz	r2, .L17
	.loc 1 176 9 is_stmt 1
	.loc 1 176 18 is_stmt 0
	ldr	r2, .L36+56
	vldr.32	s11, [r2, #132]
.LVL11:
	.loc 1 177 9 is_stmt 1
	.loc 1 177 18 is_stmt 0
	ldr	r2, [r2, #108]
.LVL12:
.L18:
	.loc 1 185 7 is_stmt 1
	.loc 1 188 54 is_stmt 0
	rsb	r2, r2, #768
.LVL13:
	vmov	s14, r2	@ int
	.loc 1 188 47
	vcvt.f32.u32	s14, s14
	.loc 1 187 38
	vmov	s15, r3	@ int
	.loc 1 188 47
	vmul.f32	s14, s14, s11
	.loc 1 188 36
	vmov.f32	s13, #1.0e+0
	vadd.f32	s14, s14, s13
	.loc 1 187 38
	vcvt.f32.s32	s15, s15
	.loc 1 188 31
	vmov.f32	s10, #8.0e+0
	.loc 1 187 38
	vmul.f32	s15, s15, s11
	.loc 1 188 31
	vmul.f32	s14, s14, s10
	.loc 1 185 23
	ldr	r3, .L36+8
.LVL14:
	.loc 1 187 49
	vdiv.f32	s11, s15, s14
.LVL15:
	.loc 1 187 25
	vsub.f32	s13, s13, s11
	.loc 1 186 37
	vdiv.f32	s15, s12, s13
	.loc 1 186 11
	vcvt.u32.f32	s15, s15
	vstr.32	s15, [r3]	@ int
	b	.L1
.LVL16:
.L17:
	.loc 1 181 9 is_stmt 1
	.loc 1 181 18 is_stmt 0
	ldr	r2, .L36+56
	vldr.32	s11, [r2, #100]
.LVL17:
	.loc 1 182 9 is_stmt 1
	.loc 1 182 18 is_stmt 0
	ldr	r2, [r2, #76]
.LVL18:
	b	.L18
.LVL19:
.L22:
	vldr.32	s12, .L36+60
	.loc 1 157 20
	ldr	r1, .L36+64
	b	.L14
.L23:
	vldr.32	s12, .L36+68
	.loc 1 151 20
	ldr	r1, .L36+72
	b	.L14
.L37:
	.align	2
.L36:
	.word	1073808384
	.word	24000000
	.word	SystemCoreClock
	.word	1109428480
	.word	1109427712
	.word	0
	.word	1236736768
	.word	1500000
	.word	48000000
	.word	1278679808
	.word	1253513984
	.word	6000000
	.word	1270291200
	.word	1109426176
	.word	2101248
	.word	1261902592
	.word	12000000
	.word	1245125376
	.word	3000000
	.cfi_endproc
.LFE131:
	.size	SystemCoreClockUpdate, .-SystemCoreClockUpdate
	.section	.text.SystemInit,"ax",%progbits
	.align	1
	.p2align 2,,3
	.global	SystemInit
	.syntax unified
	.thumb
	.thumb_func
	.type	SystemInit, %function
SystemInit:
.LFB132:
	.loc 1 234 23 is_stmt 1
	.cfi_startproc
	@ args = 0, pretend = 0, frame = 0
	@ frame_needed = 0, uses_anonymous_args = 0
	@ link register save eliminated.
	.loc 1 237 3
	.loc 1 237 6 is_stmt 0
	ldr	r1, .L44
	.loc 1 242 14
	ldr	r0, .L44+4
	.loc 1 237 6
	ldr	r3, [r1, #136]
	.loc 1 246 20 discriminator 1
	ldr	r2, .L44+8
	.loc 1 242 14
	mov	ip, #23168
	.loc 1 237 14
	orr	r3, r3, #15728640
	str	r3, [r1, #136]
	.loc 1 242 3 is_stmt 1
	.loc 1 242 14 is_stmt 0
	strh	ip, [r0, #12]	@ movhi
	.loc 1 246 3 is_stmt 1
.L39:
	.loc 1 246 10 discriminator 1
	.loc 1 246 20 is_stmt 0 discriminator 1
	ldr	r3, [r2, #144]
	.loc 1 246 10 discriminator 1
	lsls	r3, r3, #31
	bpl	.L39
	.loc 1 248 3 is_stmt 1
	.loc 1 248 15 is_stmt 0
	ldr	r3, [r2, #20]
	.loc 1 248 6
	cmp	r3, #4
	.loc 1 249 5 is_stmt 1
	.loc 1 249 32 is_stmt 0
	ite	eq
	moveq	r3, #8
	.loc 1 251 5 is_stmt 1
	.loc 1 296 3
	.loc 1 251 32 is_stmt 0
	movne	r3, #2
	str	r3, [r2, #80]
	.loc 1 296 13
	ldr	r3, .L44+12
	movw	r1, #26970
	.loc 1 297 13
	mov	r2, #65536
	.loc 1 296 13
	str	r1, [r3]
	.loc 1 297 3 is_stmt 1
	.loc 1 297 13 is_stmt 0
	str	r2, [r3, #4]
	.loc 1 298 3 is_stmt 1
	.loc 1 298 5 is_stmt 0
	ldr	r2, [r3, #8]
	.loc 1 303 10
	ldr	r1, .L44+16
	.loc 1 298 12
	bic	r2, r2, #458752
	bic	r2, r2, #4
	.loc 1 300 11
	movs	r0, #0
	.loc 1 298 12
	str	r2, [r3, #8]
	.loc 1 300 3 is_stmt 1
	.loc 1 300 11 is_stmt 0
	str	r0, [r3]
	.loc 1 303 3 is_stmt 1
	.loc 1 303 10 is_stmt 0
	ldr	r3, [r1, #16]
	.loc 1 303 24
	bic	r3, r3, #48
	str	r3, [r1, #16]
	.loc 1 305 3 is_stmt 1
	.loc 1 305 10 is_stmt 0
	ldr	r3, [r1, #20]
	.loc 1 305 24
	bic	r3, r3, #48
	str	r3, [r1, #20]
	.loc 1 400 1
	bx	lr
.L45:
	.align	2
.L44:
	.word	-536810240
	.word	1073760256
	.word	-536596480
	.word	1073808384
	.word	1073811456
	.cfi_endproc
.LFE132:
	.size	SystemInit, .-SystemInit
	.global	SystemCoreClock
	.section	.data.SystemCoreClock,"aw"
	.align	2
	.type	SystemCoreClock, %object
	.size	SystemCoreClock, 4
SystemCoreClock:
	.word	3000000
	.text
.Letext0:
	.file 2 "/usr/arm-none-eabi/include/machine/_default_types.h"
	.file 3 "/usr/arm-none-eabi/include/sys/_stdint.h"
	.file 4 "/home/brighton/Documents/SDK/ti/msp432p4111/simplelink_msp432p4_sdk_3_40_01_02//source/third_party/CMSIS/Include/core_cm4.h"
	.file 5 "/home/brighton/Documents/SDK/ti/msp432p4111/simplelink_msp432p4_sdk_3_40_01_02//source/ti/devices/msp432p4xx/inc/msp432p4111.h"
	.file 6 "/home/brighton/Documents/SDK/ti/msp432p4111/simplelink_msp432p4_sdk_3_40_01_02//source/ti/devices/msp432p4xx/inc/system_msp432p4111.h"