	.cpu cortex-m4
	.arch armv7e-m
	.fpu fpv4-sp-d16
	.eabi_attribute 27, 1
	.eabi_attribute 28, 1
	.eabi_attribute 20, 1
	.eabi_attribute 21, 1
	.eabi_attribute 23, 3
	.eabi_attribute 24, 1
	.eabi_attribute 25, 1
	.eabi_attribute 26, 1
	.eabi_attribute 30, 2
	.eabi_attribute 34, 1
	.eabi_attribute 18, 4
	.file	"main.c"
	.text
.Ltext0:
	.cfi_sections	.debug_frame
	.file 1 "src/main.c"
	.section	.text.uart_init,"ax",%progbits
	.align	1
	.p2align 2,,3
	.global	uart_init
	.syntax unified
	.thumb
	.thumb_func
	.type	uart_init, %function
uart_init:
.LFB134:
	.loc 1 7 22
	.cfi_startproc
	@ args = 0, pretend = 0, frame = 0
	@ frame_needed = 0, uses_anonymous_args = 0
	@ link register save eliminated.
	.loc 1 8 3
	.loc 1 8 11 is_stmt 0
	ldr	r3, .L3
	ldrh	r2, [r3]
	uxth	r2, r2
	.loc 1 9 20
	movs	r1, #0
	.loc 1 8 19
	orr	r2, r2, #1
	strh	r2, [r3]	@ movhi
	.loc 1 9 3 is_stmt 1
	.loc 1 9 20 is_stmt 0
	strh	r1, [r3, #8]	@ movhi
	.loc 1 10 3 is_stmt 1
	.loc 1 10 11 is_stmt 0
	ldrh	r2, [r3]
	.loc 1 13 5
	ldr	r1, .L3+4
	.loc 1 10 11
	uxth	r2, r2
	.loc 1 10 19
	orr	r2, r2, #128
	.loc 1 11 20
	movs	r0, #52
	.loc 1 10 19
	strh	r2, [r3]	@ movhi
	.loc 1 11 3 is_stmt 1
	.loc 1 11 20 is_stmt 0
	strh	r0, [r3, #6]	@ movhi
	.loc 1 12 3 is_stmt 1
	.loc 1 12 11 is_stmt 0
	ldrh	r2, [r3]
	.loc 1 12 19
	bic	r2, r2, #1
	lsls	r2, r2, #16
	lsrs	r2, r2, #16
	strh	r2, [r3]	@ movhi
	.loc 1 13 3 is_stmt 1
	.loc 1 13 5 is_stmt 0
	ldrb	r3, [r1, #10]	@ zero_extendqisi2
	.loc 1 13 19
	orr	r3, r3, #12
	strb	r3, [r1, #10]
	.loc 1 14 3 is_stmt 1
	.loc 1 14 5 is_stmt 0
	ldrb	r3, [r1, #12]	@ zero_extendqisi2
	.loc 1 14 19
	and	r3, r3, #243
	strb	r3, [r1, #12]
	.loc 1 15 1
	bx	lr
.L4:
	.align	2
.L3:
	.word	1073745920
	.word	1073761280
	.cfi_endproc
.LFE134:
	.size	uart_init, .-uart_init
	.section	.text.uart_send_str,"ax",%progbits
	.align	1
	.p2align 2,,3
	.global	uart_send_str
	.syntax unified
	.thumb
	.thumb_func
	.type	uart_send_str, %function
uart_send_str:
.LFB135:
	.loc 1 17 37 is_stmt 1
	.cfi_startproc
	@ args = 0, pretend = 0, frame = 0
	@ frame_needed = 0, uses_anonymous_args = 0
	@ link register save eliminated.
.LVL0:
	.loc 1 18 3
	.loc 1 19 3
	.loc 1 19 17
	.loc 1 19 13 is_stmt 0
	ldrb	r3, [r0]	@ zero_extendqisi2
	.loc 1 19 17
	cbz	r3, .L5
	.loc 1 20 21
	ldr	r2, .L15
.LVL1:
.L8:
	.loc 1 20 5 is_stmt 1
	.loc 1 20 21 is_stmt 0
	strh	r3, [r2, #14]	@ movhi
	.loc 1 21 5 is_stmt 1
.L7:
	.loc 1 21 42 discriminator 1
	.loc 1 21 35 discriminator 1
	.loc 1 21 21 is_stmt 0 discriminator 1
	ldrh	r3, [r2, #28]
	.loc 1 21 35 discriminator 1
	lsls	r3, r3, #30
	bpl	.L7
	.loc 1 22 5 is_stmt 1
.LVL2:
	.loc 1 19 17
	.loc 1 19 13 is_stmt 0
	ldrb	r3, [r0, #1]!	@ zero_extendqisi2
.LVL3:
	.loc 1 19 17
	cmp	r3, #0
	bne	.L8
.LVL4:
.L5:
	.loc 1 24 1
	bx	lr
.L16:
	.align	2
.L15:
	.word	1073745920
	.cfi_endproc
.LFE135:
	.size	uart_send_str, .-uart_send_str
	.section	.rodata.uart_get_char.str1.4,"aMS",%progbits,1
	.align	2
.LC0:
	.ascii	"\012\015Error: Non-numeric input\015\012\000"
	.align	2
.LC1:
	.ascii	"\012\015\000"
	.section	.text.uart_get_char,"ax",%progbits
	.align	1
	.p2align 2,,3
	.global	uart_get_char
	.syntax unified
	.thumb
	.thumb_func
	.type	uart_get_char, %function
uart_get_char:
.LFB136:
	.loc 1 25 29 is_stmt 1
	.cfi_startproc
	@ args = 0, pretend = 0, frame = 8
	@ frame_needed = 0, uses_anonymous_args = 0
	.loc 1 26 3
.LVL5:
	.loc 1 25 29 is_stmt 0
	push	{lr}
	.cfi_def_cfa_offset 4
	.cfi_offset 14, -4
	.loc 1 30 18
	ldr	r3, .L40
	.loc 1 25 29
	sub	sp, sp, #12
	.cfi_def_cfa_offset 16
	.loc 1 25 29
	movs	r0, #0
.LVL6:
.L18:
	.loc 1 27 3 is_stmt 1
	.loc 1 29 3
	.loc 1 30 5
	.loc 1 30 18 is_stmt 0
	ldrh	r2, [r3, #28]
	.loc 1 30 8
	lsls	r1, r2, #31
	bpl	.L18
	.loc 1 31 7 is_stmt 1
	.loc 1 31 33 is_stmt 0
	ldrh	r1, [r3, #12]
	.loc 1 31 23
	add	r2, sp, #8
	uxtab	ip, r2, r0
	uxtb	r1, r1
	uxth	r2, r1
	strb	r1, [ip, #-4]
	.loc 1 32 7 is_stmt 1
	.loc 1 32 23 is_stmt 0
	strh	r2, [r3, #14]	@ movhi
	.loc 1 33 7 is_stmt 1
.L19:
	.loc 1 33 44 discriminator 1
	.loc 1 33 37 discriminator 1
	.loc 1 33 23 is_stmt 0 discriminator 1
	ldrh	r2, [r3, #28]
	.loc 1 33 37 discriminator 1
	lsls	r2, r2, #30
	bpl	.L19
	.loc 1 35 7 is_stmt 1
	.loc 1 35 10 is_stmt 0
	cmp	r1, #13
	add	r0, r0, #1
	bne	.L18
	.loc 1 36 9 is_stmt 1
	.loc 1 36 20 is_stmt 0
	movs	r3, #0
	strb	r3, [ip, #-4]
	.loc 1 37 9 is_stmt 1
	.loc 1 44 3
	.loc 1 44 8 is_stmt 0
	ldrb	r3, [sp, #4]	@ zero_extendqisi2
	ldr	r2, .L40+4
	.loc 1 44 6
	ldrb	r3, [r2, r3]	@ zero_extendqisi2
	lsls	r3, r3, #29
	bpl	.L39
	ldr	r1, .L40+8
.LBB23:
.LBB24:
	.loc 1 20 21
	ldr	r2, .L40
	.loc 1 19 13
	movs	r3, #10
.L26:
.LVL7:
	.loc 1 20 5 is_stmt 1
	.loc 1 20 21 is_stmt 0
	strh	r3, [r2, #14]	@ movhi
	.loc 1 21 5 is_stmt 1
.L25:
	.loc 1 21 42 discriminator 1
	.loc 1 21 35 discriminator 1
	.loc 1 21 21 is_stmt 0 discriminator 1
	ldrh	r3, [r2, #28]
	.loc 1 21 35 discriminator 1
	lsls	r3, r3, #30
	bpl	.L25
	.loc 1 22 5 is_stmt 1
.LVL8:
	.loc 1 19 17
	.loc 1 19 13 is_stmt 0
	ldrb	r3, [r1, #1]!	@ zero_extendqisi2
.LVL9:
	.loc 1 19 17
	cmp	r3, #0
	bne	.L26
.LVL10:
.LBE24:
.LBE23:
	.loc 1 50 3 is_stmt 1
	.loc 1 50 10 is_stmt 0
	add	r0, sp, #4
	bl	atoi
.LVL11:
	.loc 1 50 10 discriminator 1
	sxth	r0, r0
.L24:
	.loc 1 51 1
	add	sp, sp, #12
	.cfi_remember_state
	.cfi_def_cfa_offset 4
	@ sp needed
	ldr	pc, [sp], #4
.L39:
	.cfi_restore_state
	ldr	r1, .L40+12
.LBB25:
.LBB26:
	.loc 1 20 21
	ldr	r2, .L40
	.loc 1 19 13
	movs	r3, #10
.L23:
.LVL12:
	.loc 1 20 5 is_stmt 1
	.loc 1 20 21 is_stmt 0
	strh	r3, [r2, #14]	@ movhi
	.loc 1 21 5 is_stmt 1
.L22:
	.loc 1 21 42 discriminator 1
	.loc 1 21 35 discriminator 1
	.loc 1 21 21 is_stmt 0 discriminator 1
	ldrh	r3, [r2, #28]
	.loc 1 21 35 discriminator 1
	lsls	r0, r3, #30
	bpl	.L22
	.loc 1 22 5 is_stmt 1
.LVL13:
	.loc 1 19 17
	.loc 1 19 13 is_stmt 0
	ldrb	r3, [r1, #1]!	@ zero_extendqisi2
.LVL14:
	.loc 1 19 17
	cmp	r3, #0
	bne	.L23
.LBE26:
.LBE25:
	.loc 1 46 12
	mov	r0, #-1
	b	.L24
.L41:
	.align	2
.L40:
	.word	1073745920
	.word	_ctype_+1
	.word	.LC1
	.word	.LC0
	.cfi_endproc
.LFE136:
	.size	uart_get_char, .-uart_get_char
	.section	.rodata.main.str1.4,"aMS",%progbits,1
	.align	2
.LC2:
	.ascii	"P2->SEL0 <%p> = 0x%x\015\012\000"
	.align	2
.LC3:
	.ascii	"P2->SEL1 <%p> = 0x%x\015\012\000"
	.align	2
.LC4:
	.ascii	"P2->DIR <%p> = 0x%x\015\012\000"
	.align	2
.LC5:
	.ascii	"P2->OUT <%p> = 0x%x\015\012\015\012\000"
	.section	.text.startup.main,"ax",%progbits
	.align	1
	.p2align 2,,3
	.global	main
	.syntax unified
	.thumb
	.thumb_func
	.type	main, %function
main:
.LFB137:
	.loc 1 61 16 is_stmt 1
	.cfi_startproc
	@ args = 0, pretend = 0, frame = 504
	@ frame_needed = 0, uses_anonymous_args = 0
	.loc 1 62 3
	.loc 1 61 16 is_stmt 0
	push	{r4, r5, lr}
	.cfi_def_cfa_offset 12
	.cfi_offset 4, -12
	.cfi_offset 5, -8
	.cfi_offset 14, -4
	sub	sp, sp, #516
	.cfi_def_cfa_offset 528
	.loc 1 62 3
	bl	uart_init
.LVL15:
	.loc 1 64 3 is_stmt 1
	.syntax unified
@ 64 "src/main.c" 1
	ldr r0, =0x40004c0b
	mov r1, #0x0000
	strh r1, [r0]
	
@ 0 "" 2
	.loc 1 67 3
	.thumb
	.syntax unified
.LBB27:
	.loc 1 67 3
	.loc 1 67 3
	ldr	r3, .L92
	ldr	r2, .L92+4
	ldrb	r1, [r3, #11]	@ zero_extendqisi2
	str	r1, [sp]
	adds	r3, r3, #11
	mov	r1, #500
	add	r0, sp, #12
	bl	snprintf
.LVL16:
	.loc 1 67 3 discriminator 1
.LBB28:
.LBB29:
	.loc 1 18 3
	.loc 1 19 3
	.loc 1 19 17
	.loc 1 19 13 is_stmt 0
	ldrb	r3, [sp, #12]	@ zero_extendqisi2
	.loc 1 19 17
	cbz	r3, .L43
	.loc 1 20 21
	ldr	r2, .L92+8
	add	r1, sp, #12
.LVL17:
.L45:
	.loc 1 20 5 is_stmt 1
	.loc 1 20 21 is_stmt 0
	strh	r3, [r2, #14]	@ movhi
	.loc 1 21 5 is_stmt 1
.L44:
	.loc 1 21 42 discriminator 1
	.loc 1 21 35 discriminator 1
	.loc 1 21 21 is_stmt 0 discriminator 1
	ldrh	r3, [r2, #28]
	.loc 1 21 35 discriminator 1
	lsls	r5, r3, #30
	bpl	.L44
	.loc 1 22 5 is_stmt 1
.LVL18:
	.loc 1 19 17
	.loc 1 19 13 is_stmt 0
	ldrb	r3, [r1, #1]!	@ zero_extendqisi2
.LVL19:
	.loc 1 19 17
	cmp	r3, #0
	bne	.L45
.LVL20:
.L43:
.LBE29:
.LBE28:
.LBE27:
	.loc 1 67 3 is_stmt 1
	.loc 1 70 3
	.syntax unified
@ 70 "src/main.c" 1
	ldr r0, =0x40004c0d
	mov r1, #0x0000
	strh r1, [r0]
	
@ 0 "" 2
	.loc 1 73 3
	.thumb
	.syntax unified
.LBB30:
	.loc 1 73 3
	.loc 1 73 3
	ldr	r2, .L92
	ldr	r3, .L92+12
	ldrb	r1, [r2, #13]	@ zero_extendqisi2
	str	r1, [sp]
	ldr	r2, .L92+16
	mov	r1, #500
	add	r0, sp, #12
	bl	snprintf
.LVL21:
	.loc 1 73 3 discriminator 1
.LBB31:
.LBB32:
	.loc 1 18 3
	.loc 1 19 3
	.loc 1 19 17
	.loc 1 19 13 is_stmt 0
	ldrb	r3, [sp, #12]	@ zero_extendqisi2
	.loc 1 19 17
	cbz	r3, .L46
	.loc 1 20 21
	ldr	r2, .L92+8
	add	r1, sp, #12
.LVL22:
.L48:
	.loc 1 20 5 is_stmt 1
	.loc 1 20 21 is_stmt 0
	strh	r3, [r2, #14]	@ movhi
	.loc 1 21 5 is_stmt 1
.L47:
	.loc 1 21 42 discriminator 1
	.loc 1 21 35 discriminator 1
	.loc 1 21 21 is_stmt 0 discriminator 1
	ldrh	r3, [r2, #28]
	.loc 1 21 35 discriminator 1
	lsls	r4, r3, #30
	bpl	.L47
	.loc 1 22 5 is_stmt 1
.LVL23:
	.loc 1 19 17
	.loc 1 19 13 is_stmt 0
	ldrb	r3, [r1, #1]!	@ zero_extendqisi2
.LVL24:
	.loc 1 19 17
	cmp	r3, #0
	bne	.L48
.LVL25:
.L46:
.LBE32:
.LBE31:
.LBE30:
	.loc 1 73 3 is_stmt 1
	.loc 1 76 3
	.syntax unified
@ 76 "src/main.c" 1
	ldr r0, =0x40004c05
	mov r1, #0x0001
	strh r1, [r0]
	
@ 0 "" 2
	.loc 1 79 3
	.thumb
	.syntax unified
.LBB33:
	.loc 1 79 3
	.loc 1 79 3
	ldr	r2, .L92
	ldr	r3, .L92+20
	ldrb	r1, [r2, #5]	@ zero_extendqisi2
	str	r1, [sp]
	ldr	r2, .L92+24
	mov	r1, #500
	add	r0, sp, #12
	bl	snprintf
.LVL26:
	.loc 1 79 3 discriminator 1
.LBB34:
.LBB35:
	.loc 1 18 3
	.loc 1 19 3
	.loc 1 19 17
	.loc 1 19 13 is_stmt 0
	ldrb	r3, [sp, #12]	@ zero_extendqisi2
	.loc 1 19 17
	cbz	r3, .L49
	.loc 1 20 21
	ldr	r2, .L92+8
	add	r1, sp, #12
.LVL27:
.L51:
	.loc 1 20 5 is_stmt 1
	.loc 1 20 21 is_stmt 0
	strh	r3, [r2, #14]	@ movhi
	.loc 1 21 5 is_stmt 1
.L50:
	.loc 1 21 42 discriminator 1
	.loc 1 21 35 discriminator 1
	.loc 1 21 21 is_stmt 0 discriminator 1
	ldrh	r3, [r2, #28]
	.loc 1 21 35 discriminator 1
	lsls	r0, r3, #30
	bpl	.L50
	.loc 1 22 5 is_stmt 1
.LVL28:
	.loc 1 19 17
	.loc 1 19 13 is_stmt 0
	ldrb	r3, [r1, #1]!	@ zero_extendqisi2
.LVL29:
	.loc 1 19 17
	cmp	r3, #0
	bne	.L51
.LVL30:
.L49:
.LBE35:
.LBE34:
.LBE33:
.LBB36:
	.loc 1 86 5
	ldr	r5, .L92+28
.LBB37:
.LBB38:
	.loc 1 20 21
	ldr	r4, .L92+8
.L59:
.LBE38:
.LBE37:
.LBE36:
	.loc 1 79 3 is_stmt 1
	.loc 1 82 3
	.loc 1 83 5
	.syntax unified
@ 83 "src/main.c" 1
	ldr r0, =0x40004c03
	mov r1, #0x00FE
	strh r1, [r0]
	
@ 0 "" 2
	.loc 1 86 5
	.thumb
	.syntax unified
.LBB41:
	.loc 1 86 5
	.loc 1 86 5
	ldr	r3, .L92
	ldr	r2, .L92+32
	ldrb	r3, [r3, #3]	@ zero_extendqisi2
	str	r3, [sp]
	mov	r1, #500
	mov	r3, r5
	add	r0, sp, #12
	bl	snprintf
.LVL31:
	.loc 1 86 5 discriminator 1
.LBB40:
.LBB39:
	.loc 1 18 3
	.loc 1 19 3
	.loc 1 19 17
	.loc 1 19 13 is_stmt 0
	ldrb	r3, [sp, #12]	@ zero_extendqisi2
	.loc 1 19 17
	cbz	r3, .L52
	add	r2, sp, #12
.LVL32:
.L54:
	.loc 1 20 5 is_stmt 1
	.loc 1 20 21 is_stmt 0
	strh	r3, [r4, #14]	@ movhi
	.loc 1 21 5 is_stmt 1
.L53:
	.loc 1 21 42 discriminator 1
	.loc 1 21 35 discriminator 1
	.loc 1 21 21 is_stmt 0 discriminator 1
	ldrh	r3, [r4, #28]
	.loc 1 21 35 discriminator 1
	lsls	r1, r3, #30
	bpl	.L53
	.loc 1 22 5 is_stmt 1
.LVL33:
	.loc 1 19 17
	.loc 1 19 13 is_stmt 0
	ldrb	r3, [r2, #1]!	@ zero_extendqisi2
.LVL34:
	.loc 1 19 17
	cmp	r3, #0
	bne	.L54
.LVL35:
.L52:
.LBE39:
.LBE40:
.LBE41:
	.loc 1 86 5 is_stmt 1
	.loc 1 88 5
	.loc 1 88 10
	.loc 1 88 23 discriminator 1
	.loc 1 90 5
	.syntax unified
@ 90 "src/main.c" 1
	ldr r0, =0x40004c03
	mov r1, #0x0001
	strh r1, [r0]
	
@ 0 "" 2
	.loc 1 93 5
	.thumb
	.syntax unified
.LBB42:
	.loc 1 93 5
	.loc 1 93 5
	ldr	r3, .L92
	ldr	r2, .L92+32
	ldrb	r3, [r3, #3]	@ zero_extendqisi2
	str	r3, [sp]
	mov	r1, #500
	mov	r3, r5
	add	r0, sp, #12
	bl	snprintf
.LVL36:
	.loc 1 93 5 discriminator 1
.LBB43:
.LBB44:
	.loc 1 18 3
	.loc 1 19 3
	.loc 1 19 17
	.loc 1 19 13 is_stmt 0
	ldrb	r3, [sp, #12]	@ zero_extendqisi2
	.loc 1 19 17
	cbz	r3, .L55
	add	r2, sp, #12
.LVL37:
.L57:
	.loc 1 20 5 is_stmt 1
	.loc 1 20 21 is_stmt 0
	strh	r3, [r4, #14]	@ movhi
	.loc 1 21 5 is_stmt 1
.L56:
	.loc 1 21 42 discriminator 1
	.loc 1 21 35 discriminator 1
	.loc 1 21 21 is_stmt 0 discriminator 1
	ldrh	r3, [r4, #28]
	.loc 1 21 35 discriminator 1
	lsls	r3, r3, #30
	bpl	.L56
	.loc 1 22 5 is_stmt 1
.LVL38:
	.loc 1 19 17
	.loc 1 19 13 is_stmt 0
	ldrb	r3, [r2, #1]!	@ zero_extendqisi2
.LVL39:
	.loc 1 19 17
	cmp	r3, #0
	bne	.L57
.LVL40:
.L55:
.LBE44:
.LBE43:
.LBE42:
	.loc 1 93 5 is_stmt 1
	.loc 1 95 5
.LBB45:
	.loc 1 95 10
	.loc 1 95 23 discriminator 1
.LBE45:
.LBB46:
	ldr	r3, .L92+36
.LVL41:
.L58:
.LBE46:
.LBB47:
	.loc 1 95 39 discriminator 3
	.loc 1 95 34 discriminator 3
	.loc 1 95 23 discriminator 1
	subs	r3, r3, #1
	bne	.L58
	b	.L59
.L93:
	.align	2
.L92:
	.word	1073761280
	.word	.LC2
	.word	1073745920
	.word	1073761293
	.word	.LC3
	.word	1073761285
	.word	.LC4
	.word	1073761283
	.word	.LC5
	.word	100000
.LBE47:
	.cfi_endproc
.LFE137:
	.size	main, .-main
	.text
.Letext0:
	.file 2 "/usr/arm-none-eabi/include/machine/_default_types.h"
	.file 3 "/usr/arm-none-eabi/include/sys/_stdint.h"
	.file 4 "/home/brighton/Documents/SDK/ti/msp432p4111/simplelink_msp432p4_sdk_3_40_01_02//source/ti/devices/msp432p4xx/inc/msp432p4111.h"
	.file 5 "/usr/lib/gcc/arm-none-eabi/13.2.0/include/stddef.h"
	.file 6 "/usr/arm-none-eabi/include/stdio.h"
	.file 7 "/usr/arm-none-eabi/include/stdlib.h"
	.file 8 "/usr/arm-none-eabi/include/ctype.h"